target datalayout = "e-m:e-p270:32:32-p271:32:32-p272:64:64-i64:64-i128:128-f80:128-n8:16:32:64-S128"
target triple = "x86_64-pc-linux-gnu"

%struct._generic_N_Vector = type { ptr, ptr, ptr }
%struct._N_VectorContent_Serial = type { i64, i32, ptr }

; Function Attrs: nounwind uwtable
define i32 @N_VScaleAddMulti_Serial(i32 noundef %0, ptr noundef %1, ptr noundef %2, ptr noundef %3, ptr noundef %4) #0 {
  %6 = alloca i32, align 4
  %7 = alloca i32, align 4
  %8 = alloca ptr, align 8
  %9 = alloca ptr, align 8
  %10 = alloca ptr, align 8
  %11 = alloca ptr, align 8
  %12 = alloca ptr, align 8
  %13 = alloca i32, align 4
  %14 = alloca i64, align 8
  %15 = alloca i64, align 8
  %16 = alloca ptr, align 8
  %17 = alloca ptr, align 8
  %18 = alloca ptr, align 8
  %19 = alloca i32, align 4
  store i32 %0, ptr %7, align 4, !tbaa !74
  store ptr %1, ptr %8, align 8, !tbaa !69
  store ptr %2, ptr %9, align 8, !tbaa !10
  store ptr %3, ptr %10, align 8, !tbaa !75
  store ptr %4, ptr %11, align 8, !tbaa !75
  call void @llvm.lifetime.start.p0(i64 8, ptr %12) #6
  %20 = load ptr, ptr %9, align 8, !tbaa !10
  %21 = getelementptr inbounds nuw %struct._generic_N_Vector, ptr %20, i32 0, i32 2
  %22 = load ptr, ptr %21, align 8, !tbaa !68
  store ptr %22, ptr %12, align 8, !tbaa !7
  call void @llvm.lifetime.start.p0(i64 4, ptr %13) #6
  call void @llvm.lifetime.start.p0(i64 8, ptr %14) #6
  call void @llvm.lifetime.start.p0(i64 8, ptr %15) #6
  call void @llvm.lifetime.start.p0(i64 8, ptr %16) #6
  store ptr null, ptr %16, align 8, !tbaa !69
  call void @llvm.lifetime.start.p0(i64 8, ptr %17) #6
  store ptr null, ptr %17, align 8, !tbaa !69
  call void @llvm.lifetime.start.p0(i64 8, ptr %18) #6
  store ptr null, ptr %18, align 8, !tbaa !69
  %23 = load i32, ptr %7, align 4, !tbaa !74
  %24 = icmp eq i32 %23, 1
  br i1 %24, label %25, label %36

25:                                               ; preds = %5
  %26 = load ptr, ptr %8, align 8, !tbaa !69
  %27 = getelementptr inbounds double, ptr %26, i64 0
  %28 = load double, ptr %27, align 8, !tbaa !72
  %29 = load ptr, ptr %9, align 8, !tbaa !10
  %30 = load ptr, ptr %10, align 8, !tbaa !75
  %31 = getelementptr inbounds ptr, ptr %30, i64 0
  %32 = load ptr, ptr %31, align 8, !tbaa !10
  %33 = load ptr, ptr %11, align 8, !tbaa !75
  %34 = getelementptr inbounds ptr, ptr %33, i64 0
  %35 = load ptr, ptr %34, align 8, !tbaa !10
  call void @N_VLinearSum_Serial(double noundef %28, ptr noundef %29, double noundef 1.000000e+00, ptr noundef %32, ptr noundef %35)
  store i32 0, ptr %6, align 4
  store i32 1, ptr %19, align 4
  br label %146

36:                                               ; preds = %5
  %37 = load ptr, ptr %9, align 8, !tbaa !10
  %38 = getelementptr inbounds nuw %struct._generic_N_Vector, ptr %37, i32 0, i32 0
  %39 = load ptr, ptr %38, align 8, !tbaa !61
  %40 = getelementptr inbounds nuw %struct._N_VectorContent_Serial, ptr %39, i32 0, i32 0
  %41 = load i64, ptr %40, align 8, !tbaa !62
  store i64 %41, ptr %15, align 8, !tbaa !3
  %42 = load ptr, ptr %9, align 8, !tbaa !10
  %43 = getelementptr inbounds nuw %struct._generic_N_Vector, ptr %42, i32 0, i32 0
  %44 = load ptr, ptr %43, align 8, !tbaa !61
  %45 = getelementptr inbounds nuw %struct._N_VectorContent_Serial, ptr %44, i32 0, i32 2
  %46 = load ptr, ptr %45, align 8, !tbaa !67
  store ptr %46, ptr %16, align 8, !tbaa !69
  %47 = load ptr, ptr %10, align 8, !tbaa !75
  %48 = load ptr, ptr %11, align 8, !tbaa !75
  %49 = icmp eq ptr %47, %48
  br i1 %49, label %50, label %92

50:                                               ; preds = %36
  store i32 0, ptr %13, align 4, !tbaa !74
  br label %51

51:                                               ; preds = %88, %50
  %52 = load i32, ptr %13, align 4, !tbaa !74
  %53 = load i32, ptr %7, align 4, !tbaa !74
  %54 = icmp slt i32 %52, %53
  br i1 %54, label %55, label %91

55:                                               ; preds = %51
  %56 = load ptr, ptr %10, align 8, !tbaa !75
  %57 = load i32, ptr %13, align 4, !tbaa !74
  %58 = sext i32 %57 to i64
  %59 = getelementptr inbounds ptr, ptr %56, i64 %58
  %60 = load ptr, ptr %59, align 8, !tbaa !10
  %61 = getelementptr inbounds nuw %struct._generic_N_Vector, ptr %60, i32 0, i32 0
  %62 = load ptr, ptr %61, align 8, !tbaa !61
  %63 = getelementptr inbounds nuw %struct._N_VectorContent_Serial, ptr %62, i32 0, i32 2
  %64 = load ptr, ptr %63, align 8, !tbaa !67
  store ptr %64, ptr %17, align 8, !tbaa !69
  store i64 0, ptr %14, align 8, !tbaa !3
  br label %65

65:                                               ; preds = %84, %55
  %66 = load i64, ptr %14, align 8, !tbaa !3
  %67 = load i64, ptr %15, align 8, !tbaa !3
  %68 = icmp slt i64 %66, %67
  br i1 %68, label %69, label %87

69:                                               ; preds = %65
  %70 = load ptr, ptr %8, align 8, !tbaa !69
  %71 = load i32, ptr %13, align 4, !tbaa !74
  %72 = sext i32 %71 to i64
  %73 = getelementptr inbounds double, ptr %70, i64 %72
  %74 = load double, ptr %73, align 8, !tbaa !72
  %75 = load ptr, ptr %16, align 8, !tbaa !69
  %76 = load i64, ptr %14, align 8, !tbaa !3
  %77 = getelementptr inbounds double, ptr %75, i64 %76
  %78 = load double, ptr %77, align 8, !tbaa !72
  %79 = load ptr, ptr %17, align 8, !tbaa !69
  %80 = load i64, ptr %14, align 8, !tbaa !3
  %81 = getelementptr inbounds double, ptr %79, i64 %80
  %82 = load double, ptr %81, align 8, !tbaa !72
  %83 = call double @llvm.fmuladd.f64(double %74, double %78, double %82)
  store double %83, ptr %81, align 8, !tbaa !72
  br label %84

84:                                               ; preds = %69
  %85 = load i64, ptr %14, align 8, !tbaa !3
  %86 = add nsw i64 %85, 1
  store i64 %86, ptr %14, align 8, !tbaa !3
  br label %65

87:                                               ; preds = %65
  br label %88

88:                                               ; preds = %87
  %89 = load i32, ptr %13, align 4, !tbaa !74
  %90 = add nsw i32 %89, 1
  store i32 %90, ptr %13, align 4, !tbaa !74
  br label %51

91:                                               ; preds = %51
  store i32 0, ptr %6, align 4
  store i32 1, ptr %19, align 4
  br label %146

92:                                               ; preds = %36
  store i32 0, ptr %13, align 4, !tbaa !74
  br label %93

93:                                               ; preds = %142, %92
  %94 = load i32, ptr %13, align 4, !tbaa !74
  %95 = load i32, ptr %7, align 4, !tbaa !74
  %96 = icmp slt i32 %94, %95
  br i1 %96, label %97, label %145

97:                                               ; preds = %93
  %98 = load ptr, ptr %10, align 8, !tbaa !75
  %99 = load i32, ptr %13, align 4, !tbaa !74
  %100 = sext i32 %99 to i64
  %101 = getelementptr inbounds ptr, ptr %98, i64 %100
  %102 = load ptr, ptr %101, align 8, !tbaa !10
  %103 = getelementptr inbounds nuw %struct._generic_N_Vector, ptr %102, i32 0, i32 0
  %104 = load ptr, ptr %103, align 8, !tbaa !61
  %105 = getelementptr inbounds nuw %struct._N_VectorContent_Serial, ptr %104, i32 0, i32 2
  %106 = load ptr, ptr %105, align 8, !tbaa !67
  store ptr %106, ptr %17, align 8, !tbaa !69
  %107 = load ptr, ptr %11, align 8, !tbaa !75
  %108 = load i32, ptr %13, align 4, !tbaa !74
  %109 = sext i32 %108 to i64
  %110 = getelementptr inbounds ptr, ptr %107, i64 %109
  %111 = load ptr, ptr %110, align 8, !tbaa !10
  %112 = getelementptr inbounds nuw %struct._generic_N_Vector, ptr %111, i32 0, i32 0
  %113 = load ptr, ptr %112, align 8, !tbaa !61
  %114 = getelementptr inbounds nuw %struct._N_VectorContent_Serial, ptr %113, i32 0, i32 2
  %115 = load ptr, ptr %114, align 8, !tbaa !67
  store ptr %115, ptr %18, align 8, !tbaa !69
  store i64 0, ptr %14, align 8, !tbaa !3
  br label %116

116:                                              ; preds = %138, %97
  %117 = load i64, ptr %14, align 8, !tbaa !3
  %118 = load i64, ptr %15, align 8, !tbaa !3
  %119 = icmp slt i64 %117, %118
  br i1 %119, label %120, label %141

120:                                              ; preds = %116
  %121 = load ptr, ptr %8, align 8, !tbaa !69
  %122 = load i32, ptr %13, align 4, !tbaa !74
  %123 = sext i32 %122 to i64
  %124 = getelementptr inbounds double, ptr %121, i64 %123
  %125 = load double, ptr %124, align 8, !tbaa !72
  %126 = load ptr, ptr %16, align 8, !tbaa !69
  %127 = load i64, ptr %14, align 8, !tbaa !3
  %128 = getelementptr inbounds double, ptr %126, i64 %127
  %129 = load double, ptr %128, align 8, !tbaa !72
  %130 = load ptr, ptr %17, align 8, !tbaa !69
  %131 = load i64, ptr %14, align 8, !tbaa !3
  %132 = getelementptr inbounds double, ptr %130, i64 %131
  %133 = load double, ptr %132, align 8, !tbaa !72
  %134 = call double @llvm.fmuladd.f64(double %125, double %129, double %133)
  %135 = load ptr, ptr %18, align 8, !tbaa !69
  %136 = load i64, ptr %14, align 8, !tbaa !3
  %137 = getelementptr inbounds double, ptr %135, i64 %136
  store double %134, ptr %137, align 8, !tbaa !72
  br label %138

138:                                              ; preds = %120
  %139 = load i64, ptr %14, align 8, !tbaa !3
  %140 = add nsw i64 %139, 1
  store i64 %140, ptr %14, align 8, !tbaa !3
  br label %116

141:                                              ; preds = %116
  br label %142

142:                                              ; preds = %141
  %143 = load i32, ptr %13, align 4, !tbaa !74
  %144 = add nsw i32 %143, 1
  store i32 %144, ptr %13, align 4, !tbaa !74
  br label %93

145:                                              ; preds = %93
  store i32 0, ptr %6, align 4
  store i32 1, ptr %19, align 4
  br label %146

146:                                              ; preds = %145, %91, %25
  call void @llvm.lifetime.end.p0(i64 8, ptr %18) #6
  call void @llvm.lifetime.end.p0(i64 8, ptr %17) #6
  call void @llvm.lifetime.end.p0(i64 8, ptr %16) #6
  call void @llvm.lifetime.end.p0(i64 8, ptr %15) #6
  call void @llvm.lifetime.end.p0(i64 8, ptr %14) #6
  call void @llvm.lifetime.end.p0(i64 4, ptr %13) #6
  call void @llvm.lifetime.end.p0(i64 8, ptr %12) #6
  %147 = load i32, ptr %6, align 4
  ret i32 %147
}