; Function Attrs: nofree norecurse nosync nounwind memory(readwrite, inaccessiblemem: none) uwtable
define noundef i32 @N_VScaleAddMulti_Serial(i32 noundef %0, ptr noundef readonly captures(none) %1, ptr noundef captures(address) %2, ptr noundef readonly captures(address) %3, ptr noundef readonly captures(address) %4) #7 {
  %6 = icmp eq i32 %0, 1
  br i1 %6, label %7, label %11

7:                                                ; preds = %5
  %8 = load double, ptr %1, align 8, !tbaa !64
  %9 = load ptr, ptr %3, align 8, !tbaa !67
  %10 = load ptr, ptr %4, align 8, !tbaa !67
  tail call void @N_VLinearSum_Serial(double noundef %8, ptr noundef %2, double noundef 1.000000e+00, ptr noundef %9, ptr noundef %10)
  br label %.loopexit

11:                                               ; preds = %5
  %12 = load ptr, ptr %2, align 8, !tbaa !54
  %13 = load i64, ptr %12, align 8, !tbaa !55
  %14 = getelementptr inbounds nuw i8, ptr %12, i64 16
  %15 = load ptr, ptr %14, align 8, !tbaa !61
  %16 = icmp eq ptr %3, %4
  %17 = icmp sgt i32 %0, 0
  %18 = icmp sgt i64 %13, 0
  %or.cond70 = select i1 %17, i1 %18, i1 false
  br i1 %16, label %.preheader, label %.preheader48

.preheader48:                                     ; preds = %11
  br i1 %or.cond70, label %.lr.ph.us.preheader, label %.loopexit

.lr.ph.us.preheader:                              ; preds = %.preheader48
  %wide.trip.count = zext nneg i32 %0 to i64
  br label %.lr.ph.us

.lr.ph.us:                                        ; preds = %.lr.ph.us.preheader, %._crit_edge.us
  %indvars.iv = phi i64 [ 0, %.lr.ph.us.preheader ], [ %indvars.iv.next, %._crit_edge.us ]
  %19 = getelementptr inbounds nuw ptr, ptr %3, i64 %indvars.iv
  %20 = load ptr, ptr %19, align 8, !tbaa !67
  %21 = load ptr, ptr %20, align 8, !tbaa !54
  %22 = getelementptr inbounds nuw i8, ptr %21, i64 16
  %23 = load ptr, ptr %22, align 8, !tbaa !61
  %24 = getelementptr inbounds nuw ptr, ptr %4, i64 %indvars.iv
  %25 = load ptr, ptr %24, align 8, !tbaa !67
  %26 = load ptr, ptr %25, align 8, !tbaa !54
  %27 = getelementptr inbounds nuw i8, ptr %26, i64 16
  %28 = load ptr, ptr %27, align 8, !tbaa !61
  %29 = getelementptr inbounds nuw double, ptr %1, i64 %indvars.iv
  br label %30

30:                                               ; preds = %.lr.ph.us, %30
  %.150.us = phi i64 [ 0, %.lr.ph.us ], [ %38, %30 ]
  %31 = load double, ptr %29, align 8, !tbaa !64
  %32 = getelementptr inbounds nuw double, ptr %15, i64 %.150.us
  %33 = load double, ptr %32, align 8, !tbaa !64
  %34 = getelementptr inbounds nuw double, ptr %23, i64 %.150.us
  %35 = load double, ptr %34, align 8, !tbaa !64
  %36 = tail call double @llvm.fmuladd.f64(double %31, double %33, double %35)
  %37 = getelementptr inbounds nuw double, ptr %28, i64 %.150.us
  store double %36, ptr %37, align 8, !tbaa !64
  %38 = add nuw nsw i64 %.150.us, 1
  %exitcond.not = icmp eq i64 %38, %13
  br i1 %exitcond.not, label %._crit_edge.us, label %30

._crit_edge.us:                                   ; preds = %30
  %indvars.iv.next = add nuw nsw i64 %indvars.iv, 1
  %exitcond62.not = icmp eq i64 %indvars.iv.next, %wide.trip.count
  br i1 %exitcond62.not, label %.loopexit, label %.lr.ph.us

.preheader:                                       ; preds = %11
  br i1 %or.cond70, label %.lr.ph.us56.preheader, label %.loopexit

.lr.ph.us56.preheader:                            ; preds = %.preheader
  %wide.trip.count67 = zext nneg i32 %0 to i64
  br label %.lr.ph.us56

.lr.ph.us56:                                      ; preds = %.lr.ph.us56.preheader, %._crit_edge.us57
  %indvars.iv64 = phi i64 [ 0, %.lr.ph.us56.preheader ], [ %indvars.iv.next65, %._crit_edge.us57 ]
  %39 = getelementptr inbounds nuw ptr, ptr %3, i64 %indvars.iv64
  %40 = load ptr, ptr %39, align 8, !tbaa !67
  %41 = load ptr, ptr %40, align 8, !tbaa !54
  %42 = getelementptr inbounds nuw i8, ptr %41, i64 16
  %43 = load ptr, ptr %42, align 8, !tbaa !61
  %44 = getelementptr inbounds nuw double, ptr %1, i64 %indvars.iv64
  br label %45

45:                                               ; preds = %.lr.ph.us56, %45
  %.04253.us = phi i64 [ 0, %.lr.ph.us56 ], [ %52, %45 ]
  %46 = load double, ptr %44, align 8, !tbaa !64
  %47 = getelementptr inbounds nuw double, ptr %15, i64 %.04253.us
  %48 = load double, ptr %47, align 8, !tbaa !64
  %49 = getelementptr inbounds nuw double, ptr %43, i64 %.04253.us
  %50 = load double, ptr %49, align 8, !tbaa !64
  %51 = tail call double @llvm.fmuladd.f64(double %46, double %48, double %50)
  store double %51, ptr %49, align 8, !tbaa !64
  %52 = add nuw nsw i64 %.04253.us, 1
  %exitcond63.not = icmp eq i64 %52, %13
  br i1 %exitcond63.not, label %._crit_edge.us57, label %45

._crit_edge.us57:                                 ; preds = %45
  %indvars.iv.next65 = add nuw nsw i64 %indvars.iv64, 1
  %exitcond68.not = icmp eq i64 %indvars.iv.next65, %wide.trip.count67
  br i1 %exitcond68.not, label %.loopexit, label %.lr.ph.us56

.loopexit:                                        ; preds = %._crit_edge.us, %._crit_edge.us57, %.preheader48, %.preheader, %7
  ret i32 0
}